target datalayout = "e-m:e-p270:32:32-p271:32:32-p272:64:64-i64:64-i128:128-f80:128-n8:16:32:64-S128"
target triple = "x86_64-pc-linux-gnu"

%class.RangeCoder = type { i32, i32, i32, %"struct.RangeCoder::SUBRANGE", ptr }
%"struct.RangeCoder::SUBRANGE" = type { i32, i32, i32 }
%class.SubAllocator = type { i64, [38 x i8], [128 x i8], i8, ptr, ptr, ptr, [38 x %"struct.SubAllocator::RAR_NODE"], ptr, ptr, ptr, ptr }
%"struct.SubAllocator::RAR_NODE" = type { ptr }
%class.ModelPPM = type <{ i8, [25 x [16 x %struct.RARPPM_SEE2_CONTEXT]], %struct.RARPPM_SEE2_CONTEXT, [3 x i8], ptr, ptr, ptr, ptr, i32, i32, i32, i32, i32, i32, [256 x i8], [256 x i8], [256 x i8], [256 x i8], i8, i8, i8, i8, [128 x [64 x i16]], [4 x i8], %class.RangeCoder, %class.SubAllocator }>
%struct.RARPPM_SEE2_CONTEXT = type { i16, i8, i8 }
%class.Unpack = type { ptr, %class.BitInput, %class.Array, %class.Array, %class.Array.0, [4 x i32], i32, i32, i32, i64, i64, i32, i32, %struct.UnpackBlockHeader, %struct.UnpackBlockTables, i64, ptr, %class.FragmentedWindow, i8, i64, i8, i8, i8, i64, i8, [256 x i16], [256 x i16], [256 x i16], [256 x i16], [256 x i8], [256 x i8], [256 x i8], i32, i32, i32, i32, i32, i32, i32, i32, i32, i32, i32, i32, i32, i32, [4 x %struct.DecodeTable], [1028 x i8], i8, i32, i32, i32, [4 x %struct.AudioVariables], i32, i32, %class.ModelPPM, i32, [404 x i8], i32, i8, i8, i8, %class.RarVM, %class.BitInput, %class.Array.1, %class.Array.1, %class.Array.2, i32, i64, i64 }
%class.Array = type { ptr, i64, i64, i64 }
%class.Array.0 = type { ptr, i64, i64, i64 }
%struct.UnpackBlockHeader = type { i32, i32, i32, i32, i8, i8 }
%struct.UnpackBlockTables = type { %struct.DecodeTable, %struct.DecodeTable, %struct.DecodeTable, %struct.DecodeTable, %struct.DecodeTable }
%struct.DecodeTable = type { i32, [16 x i32], [16 x i32], i32, [1024 x i8], [1024 x i16], [306 x i16] }
%class.FragmentedWindow = type { [32 x ptr], [32 x i64] }
%struct.AudioVariables = type { i32, i32, i32, i32, i32, i32, i32, i32, i32, i32, [11 x i32], i32, i32 }
%class.RarVM = type { ptr, [8 x i32] }
%class.BitInput = type { i32, i32, i8, ptr }
%class.Array.1 = type { ptr, i64, i64, i64 }
%class.Array.2 = type { ptr, i64, i64, i64 }

; Function Attrs: mustprogress nounwind uwtable
define void @_ZN6Unpack8CorrHuffEPtPh(ptr noundef nonnull align 8 dereferenceable(59688) %0, ptr noundef %1, ptr noundef %2) #1 align 2 {
  %4 = alloca ptr, align 8
  %5 = alloca ptr, align 8
  %6 = alloca ptr, align 8
  %7 = alloca i32, align 4
  %8 = alloca i32, align 4
  store ptr %0, ptr %4, align 8
  store ptr %1, ptr %5, align 8
  store ptr %2, ptr %6, align 8
  store i32 7, ptr %7, align 4
  br label %9

9:                                                ; preds = %31, %3
  %10 = load i32, ptr %7, align 4
  %11 = icmp sge i32 %10, 0
  br i1 %11, label %12, label %34

12:                                               ; preds = %9
  store i32 0, ptr %8, align 4
  br label %13

13:                                               ; preds = %25, %12
  %14 = load i32, ptr %8, align 4
  %15 = icmp slt i32 %14, 32
  br i1 %15, label %16, label %30

16:                                               ; preds = %13
  %17 = load ptr, ptr %5, align 8
  %18 = load i16, ptr %17, align 2
  %19 = zext i16 %18 to i32
  %20 = and i32 %19, -256
  %21 = load i32, ptr %7, align 4
  %22 = or i32 %20, %21
  %23 = trunc i32 %22 to i16
  %24 = load ptr, ptr %5, align 8
  store i16 %23, ptr %24, align 2
  br label %25

25:                                               ; preds = %16
  %26 = load i32, ptr %8, align 4
  %27 = add nsw i32 %26, 1
  store i32 %27, ptr %8, align 4
  %28 = load ptr, ptr %5, align 8
  %29 = getelementptr inbounds i16, ptr %28, i32 1
  store ptr %29, ptr %5, align 8
  br label %13, !llvm.loop !53

30:                                               ; preds = %13
  br label %31

31:                                               ; preds = %30
  %32 = load i32, ptr %7, align 4
  %33 = add nsw i32 %32, -1
  store i32 %33, ptr %7, align 4
  br label %9, !llvm.loop !54

34:                                               ; preds = %9
  %35 = load ptr, ptr %6, align 8
  call void @llvm.memset.p0.i64(ptr align 1 %35, i8 0, i64 256, i1 false)
  store i32 6, ptr %7, align 4
  br label %36

36:                                               ; preds = %48, %34
  %37 = load i32, ptr %7, align 4
  %38 = icmp sge i32 %37, 0
  br i1 %38, label %39, label %51

39:                                               ; preds = %36
  %40 = load i32, ptr %7, align 4
  %41 = sub nsw i32 7, %40
  %42 = mul nsw i32 %41, 32
  %43 = trunc i32 %42 to i8
  %44 = load ptr, ptr %6, align 8
  %45 = load i32, ptr %7, align 4
  %46 = sext i32 %45 to i64
  %47 = getelementptr inbounds i8, ptr %44, i64 %46
  store i8 %43, ptr %47, align 1
  br label %48

48:                                               ; preds = %39
  %49 = load i32, ptr %7, align 4
  %50 = add nsw i32 %49, -1
  store i32 %50, ptr %7, align 4
  br label %36, !llvm.loop !55

51:                                               ; preds = %36
  ret void
}

; Function Attrs: mustprogress uwtable
define void @_ZN6Unpack8InitHuffEv(ptr noundef nonnull align 8 dereferenceable(59688) %0) #0 align 2 {
  %2 = alloca ptr, align 8
  %3 = alloca i32, align 4
  store ptr %0, ptr %2, align 8
  %4 = load ptr, ptr %2, align 8
  store i32 0, ptr %3, align 4
  br label %5

5:                                                ; preds = %36, %1
  %6 = load i32, ptr %3, align 4
  %7 = icmp ult i32 %6, 256
  br i1 %7, label %8, label %39

8:                                                ; preds = %5
  %9 = load i32, ptr %3, align 4
  %10 = shl i32 %9, 8
  %11 = trunc i32 %10 to i16
  %12 = getelementptr inbounds %class.Unpack, ptr %4, i32 0, i32 27
  %13 = load i32, ptr %3, align 4
  %14 = zext i32 %13 to i64
  %15 = getelementptr inbounds [256 x i16], ptr %12, i64 0, i64 %14
  store i16 %11, ptr %15, align 2
  %16 = getelementptr inbounds %class.Unpack, ptr %4, i32 0, i32 25
  %17 = load i32, ptr %3, align 4
  %18 = zext i32 %17 to i64
  %19 = getelementptr inbounds [256 x i16], ptr %16, i64 0, i64 %18
  store i16 %11, ptr %19, align 2
  %20 = load i32, ptr %3, align 4
  %21 = trunc i32 %20 to i16
  %22 = getelementptr inbounds %class.Unpack, ptr %4, i32 0, i32 26
  %23 = load i32, ptr %3, align 4
  %24 = zext i32 %23 to i64
  %25 = getelementptr inbounds [256 x i16], ptr %22, i64 0, i64 %24
  store i16 %21, ptr %25, align 2
  %26 = load i32, ptr %3, align 4
  %27 = xor i32 %26, -1
  %28 = add i32 %27, 1
  %29 = and i32 %28, 255
  %30 = shl i32 %29, 8
  %31 = trunc i32 %30 to i16
  %32 = getelementptr inbounds %class.Unpack, ptr %4, i32 0, i32 28
  %33 = load i32, ptr %3, align 4
  %34 = zext i32 %33 to i64
  %35 = getelementptr inbounds [256 x i16], ptr %32, i64 0, i64 %34
  store i16 %31, ptr %35, align 2
  br label %36

36:                                               ; preds = %8
  %37 = load i32, ptr %3, align 4
  %38 = add i32 %37, 1
  store i32 %38, ptr %3, align 4
  br label %5, !llvm.loop !44

39:                                               ; preds = %5
  %40 = getelementptr inbounds %class.Unpack, ptr %4, i32 0, i32 29
  %41 = getelementptr inbounds [256 x i8], ptr %40, i64 0, i64 0
  call void @llvm.memset.p0.i64(ptr align 2 %41, i8 0, i64 256, i1 false)
  %42 = getelementptr inbounds %class.Unpack, ptr %4, i32 0, i32 30
  %43 = getelementptr inbounds [256 x i8], ptr %42, i64 0, i64 0
  call void @llvm.memset.p0.i64(ptr align 2 %43, i8 0, i64 256, i1 false)
  %44 = getelementptr inbounds %class.Unpack, ptr %4, i32 0, i32 31
  %45 = getelementptr inbounds [256 x i8], ptr %44, i64 0, i64 0
  call void @llvm.memset.p0.i64(ptr align 2 %45, i8 0, i64 256, i1 false)
  %46 = getelementptr inbounds %class.Unpack, ptr %4, i32 0, i32 27
  %47 = getelementptr inbounds [256 x i16], ptr %46, i64 0, i64 0
  %48 = getelementptr inbounds %class.Unpack, ptr %4, i32 0, i32 30
  %49 = getelementptr inbounds [256 x i8], ptr %48, i64 0, i64 0
  call void @_ZN6Unpack8CorrHuffEPtPh(ptr noundef nonnull align 8 dereferenceable(59688) %4, ptr noundef %47, ptr noundef %49)
  ret void
}