; Function Attrs: mustprogress nofree norecurse nosync nounwind memory(readwrite, inaccessiblemem: none) uwtable
define void @_ZN6Unpack8InitHuffEv(ptr nocapture noundef nonnull align 8 dereferenceable(59688) %0) local_unnamed_addr #9 align 2 {
  %2 = getelementptr inbounds i8, ptr %0, i64 20890
  %3 = getelementptr inbounds i8, ptr %0, i64 19866
  %4 = getelementptr inbounds i8, ptr %0, i64 20378
  %5 = getelementptr inbounds i8, ptr %0, i64 21402
  br label %6

6:                                                ; preds = %1, %6
  %indvars.iv = phi i64 [ 0, %1 ], [ %indvars.iv.next, %6 ]
  %.0.tr = trunc i64 %indvars.iv to i16
  %7 = shl nuw i16 %.0.tr, 8
  %8 = getelementptr inbounds [256 x i16], ptr %2, i64 0, i64 %indvars.iv
  store i16 %7, ptr %8, align 2
  %9 = getelementptr inbounds [256 x i16], ptr %3, i64 0, i64 %indvars.iv
  store i16 %7, ptr %9, align 2
  %10 = getelementptr inbounds [256 x i16], ptr %4, i64 0, i64 %indvars.iv
  store i16 %.0.tr, ptr %10, align 2
  %11 = mul i16 %.0.tr, -256
  %12 = getelementptr inbounds [256 x i16], ptr %5, i64 0, i64 %indvars.iv
  store i16 %11, ptr %12, align 2
  %indvars.iv.next = add nuw nsw i64 %indvars.iv, 1
  %exitcond.not = icmp eq i64 %indvars.iv.next, 256
  br i1 %exitcond.not, label %13, label %6, !llvm.loop !42

13:                                               ; preds = %6
  %14 = getelementptr inbounds i8, ptr %0, i64 21914
  %15 = getelementptr inbounds i8, ptr %0, i64 22170
  tail call void @llvm.memset.p0.i64(ptr noundef nonnull align 2 dereferenceable(768) %14, i8 0, i64 768, i1 false)
  br label %.preheader.i

.preheader.i:                                     ; preds = %23, %13
  %.01319.i = phi i32 [ 7, %13 ], [ %24, %23 ]
  %.01418.i = phi ptr [ %2, %13 ], [ %22, %23 ]
  %16 = trunc i32 %.01319.i to i16
  br label %17

17:                                               ; preds = %17, %.preheader.i
  %.017.i = phi i32 [ 0, %.preheader.i ], [ %21, %17 ]
  %.11516.i = phi ptr [ %.01418.i, %.preheader.i ], [ %22, %17 ]
  %18 = load i16, ptr %.11516.i, align 2
  %19 = and i16 %18, -256
  %20 = or i16 %19, %16
  store i16 %20, ptr %.11516.i, align 2
  %21 = add nuw nsw i32 %.017.i, 1
  %22 = getelementptr inbounds i8, ptr %.11516.i, i64 2
  %exitcond.not.i = icmp eq i32 %21, 32
  br i1 %exitcond.not.i, label %23, label %17, !llvm.loop !43

23:                                               ; preds = %17
  %24 = add nsw i32 %.01319.i, -1
  %.not.i = icmp eq i32 %.01319.i, 0
  br i1 %.not.i, label %25, label %.preheader.i, !llvm.loop !44

25:                                               ; preds = %23
  tail call void @llvm.memset.p0.i64(ptr noundef nonnull align 2 dereferenceable(256) %15, i8 0, i64 256, i1 false)
  br label %26

26:                                               ; preds = %26, %25
  %indvars.iv.i = phi i64 [ 6, %25 ], [ %indvars.iv.next.i, %26 ]
  %.1.tr.i = trunc i64 %indvars.iv.i to i8
  %27 = shl i8 %.1.tr.i, 5
  %28 = sub nuw nsw i8 -32, %27
  %29 = getelementptr inbounds i8, ptr %15, i64 %indvars.iv.i
  store i8 %28, ptr %29, align 1
  %indvars.iv.next.i = add nsw i64 %indvars.iv.i, -1
  %.not22.i = icmp eq i64 %indvars.iv.i, 0
  br i1 %.not22.i, label %_ZN6Unpack8CorrHuffEPtPh.exit, label %26, !llvm.loop !45

_ZN6Unpack8CorrHuffEPtPh.exit:                    ; preds = %26
  ret void
}